target datalayout = "e-m:e-p270:32:32-p271:32:32-p272:64:64-i64:64-i128:128-f80:128-n8:16:32:64-S128"
target triple = "x86_64-pc-linux-gnu"

%class.xmlStream = type { %class.outputStream, ptr, i64, i32, ptr, %class.xmlTextStream }
%class.outputStream = type { ptr, i32, i8, i32, i64, %class.TimeStamp, ptr, i64 }
%class.TimeStamp = type { i64 }
%class.xmlTextStream = type { %class.outputStream, ptr }

; Function Attrs: mustprogress nounwind uwtable
define linkonce_odr hidden noundef ptr @_ZN9xmlStream4textEv(ptr noundef nonnull align 8 dereferenceable(152) %0) #1 comdat align 2 {
  %2 = alloca ptr, align 8
  store ptr %0, ptr %2, align 8
  %3 = load ptr, ptr %2, align 8
  %4 = getelementptr inbounds %class.xmlStream, ptr %3, i32 0, i32 4
  %5 = load ptr, ptr %4, align 8
  ret ptr %5
}

; Function Attrs: mustprogress nounwind uwtable
define hidden void @_ZN9xmlStream9name_textEPK6Symbol(ptr noundef nonnull align 8 dereferenceable(152) %0, ptr noundef %1) #1 align 2 {
  %3 = alloca ptr, align 8
  %4 = alloca ptr, align 8
  store ptr %0, ptr %3, align 8
  store ptr %1, ptr %4, align 8
  %5 = load ptr, ptr %3, align 8
  %6 = load ptr, ptr %4, align 8
  %7 = icmp eq ptr %6, null
  br i1 %7, label %8, label %9

8:                                                ; preds = %2
  br label %12

9:                                                ; preds = %2
  %10 = load ptr, ptr %4, align 8
  %11 = call noundef ptr @_ZN9xmlStream4textEv(ptr noundef nonnull align 8 dereferenceable(152) %5)
  call void @_ZNK6Symbol15print_symbol_onEP12outputStream(ptr noundef nonnull align 4 dereferenceable(8) %10, ptr noundef %11)
  br label %12

12:                                               ; preds = %9, %8
  ret void
}