; Function Attrs: mustprogress nounwind uwtable
define hidden void @_ZN9xmlStream9name_textEPK6Symbol(ptr nocapture noundef nonnull readonly align 8 dereferenceable(152) %0, ptr noundef %1) local_unnamed_addr #0 align 2 {
  %3 = icmp eq ptr %1, null
  br i1 %3, label %7, label %4

4:                                                ; preds = %2
  %5 = getelementptr inbounds i8, ptr %0, i64 80
  %6 = load ptr, ptr %5, align 8
  tail call void @_ZNK6Symbol15print_symbol_onEP12outputStream(ptr noundef nonnull align 4 dereferenceable(8) %1, ptr noundef %6) #8
  br label %7

7:                                                ; preds = %2, %4
  ret void
}